target datalayout = "e-m:e-p270:32:32-p271:32:32-p272:64:64-i64:64-i128:128-f80:128-n8:16:32:64-S128"
target triple = "x86_64-pc-linux-gnu"

%struct.IDAMemRec = type { ptr, double, ptr, ptr, i32, double, double, ptr, i32, i32, ptr, ptr, i32, i32, i32, ptr, ptr, i32, i32, double, double, ptr, i32, i32, i32, i32, ptr, ptr, i32, ptr, ptr, ptr, i32, double, i32, i32, double, ptr, ptr, ptr, i32, ptr, ptr, i32, i32, i32, double, ptr, ptr, ptr, [6 x ptr], [6 x double], [6 x double], [6 x double], [6 x double], [6 x double], ptr, ptr, ptr, ptr, ptr, ptr, ptr, ptr, ptr, ptr, ptr, ptr, ptr, ptr, ptr, ptr, ptr, [6 x ptr], ptr, ptr, ptr, ptr, [6 x ptr], ptr, ptr, ptr, ptr, ptr, ptr, ptr, ptr, ptr, ptr, ptr, ptr, ptr, ptr, ptr, ptr, [6 x ptr], ptr, ptr, ptr, ptr, ptr, double, ptr, ptr, i32, i32, i32, i32, i32, i32, i32, i32, double, double, double, i32, double, i32, i32, i32, i32, i32, double, double, double, double, double, double, double, double, double, double, double, double, double, double, double, double, double, i32, i32, i32, i32, i64, double, double, double, double, double, double, double, double, double, i64, i64, i64, i64, i64, i64, i64, i64, i64, i64, i64, i64, i64, i64, i64, i64, i64, i64, i64, i64, i64, i64, i64, i64, i64, i64, double, i32, i32, i32, i32, i32, i32, i32, i32, i32, i32, i32, i32, i32, ptr, i32, ptr, i32, ptr, i32, ptr, ptr, ptr, ptr, ptr, ptr, i32, i32, ptr, ptr, ptr, ptr, ptr, ptr, ptr, double, i32, i32, ptr, i32, ptr, ptr, double, double, double, ptr, ptr, ptr, double, double, i32, i32, i64, ptr, i32, ptr, [5 x double], ptr, ptr, i32, ptr, i32 }
%struct.IDAadjMemRec = type { double, double, i32, i32, double, i32, double, ptr, i32, ptr, i32, ptr, ptr, i32, i64, i64, ptr, i64, i32, ptr, ptr, ptr, ptr, i32, i32, i32, i32, i32, [6 x ptr], [6 x ptr], [6 x double], ptr, ptr, ptr, ptr }
%struct.IDABMemRec = type { i32, double, ptr, i32, i32, ptr, ptr, ptr, ptr, ptr, ptr, ptr, ptr, ptr, double, ptr, ptr, ptr }

@.str = private unnamed_addr constant [111 x i8] c"generated/home/dtcxzyw/WorkSpace/Projects/compilers/llvm-opt-benchmark/bench/sundials/sundials/src/idas/idaa.c\00", align 1
@.str.1 = private unnamed_addr constant [24 x i8] c"ida_mem = NULL illegal.\00", align 1
@.str.5 = private unnamed_addr constant [51 x i8] c"Illegal attempt to call before calling IDAadjInit.\00", align 1
@.str.12 = private unnamed_addr constant [25 x i8] c"Illegal value for which.\00", align 1
@__func__.IDAGetQuadB = private unnamed_addr constant [12 x i8] c"IDAGetQuadB\00", align 1

; Function Attrs: nounwind uwtable
define i32 @IDAGetQuadB(ptr noundef %0, i32 noundef %1, ptr noundef %2, ptr noundef %3) #0 {
  %5 = alloca i32, align 4
  %6 = alloca ptr, align 8
  %7 = alloca i32, align 4
  %8 = alloca ptr, align 8
  %9 = alloca ptr, align 8
  %10 = alloca ptr, align 8
  %11 = alloca ptr, align 8
  %12 = alloca ptr, align 8
  %13 = alloca ptr, align 8
  %14 = alloca i32, align 4
  %15 = alloca i64, align 8
  %16 = alloca i32, align 4
  store ptr %0, ptr %6, align 8, !tbaa !3
  store i32 %1, ptr %7, align 4, !tbaa !9
  store ptr %2, ptr %8, align 8, !tbaa !107
  store ptr %3, ptr %9, align 8, !tbaa !71
  call void @llvm.lifetime.start.p0(i64 8, ptr %10) #6
  call void @llvm.lifetime.start.p0(i64 8, ptr %11) #6
  call void @llvm.lifetime.start.p0(i64 8, ptr %12) #6
  call void @llvm.lifetime.start.p0(i64 8, ptr %13) #6
  call void @llvm.lifetime.start.p0(i64 4, ptr %14) #6
  call void @llvm.lifetime.start.p0(i64 8, ptr %15) #6
  %17 = load ptr, ptr %6, align 8, !tbaa !3
  %18 = icmp eq ptr %17, null
  br i1 %18, label %19, label %20

19:                                               ; preds = %4
  call void (ptr, i32, i32, ptr, ptr, ptr, ...) @IDAProcessError(ptr noundef null, i32 noundef -20, i32 noundef 1918, ptr noundef @__func__.IDAGetQuadB, ptr noundef @.str, ptr noundef @.str.1)
  store i32 -20, ptr %5, align 4
  store i32 1, ptr %16, align 4
  br label %89

20:                                               ; preds = %4
  %21 = load ptr, ptr %6, align 8, !tbaa !3
  store ptr %21, ptr %10, align 8, !tbaa !11
  %22 = load ptr, ptr %10, align 8, !tbaa !11
  %23 = getelementptr inbounds nuw %struct.IDAMemRec, ptr %22, i32 0, i32 240
  %24 = load i32, ptr %23, align 8, !tbaa !50
  %25 = icmp eq i32 %24, 0
  br i1 %25, label %26, label %28

26:                                               ; preds = %20
  %27 = load ptr, ptr %10, align 8, !tbaa !11
  call void (ptr, i32, i32, ptr, ptr, ptr, ...) @IDAProcessError(ptr noundef %27, i32 noundef -101, i32 noundef 1927, ptr noundef @__func__.IDAGetQuadB, ptr noundef @.str, ptr noundef @.str.5)
  store i32 -101, ptr %5, align 4
  store i32 1, ptr %16, align 4
  br label %89

28:                                               ; preds = %20
  %29 = load ptr, ptr %10, align 8, !tbaa !11
  %30 = getelementptr inbounds nuw %struct.IDAMemRec, ptr %29, i32 0, i32 239
  %31 = load ptr, ptr %30, align 8, !tbaa !15
  store ptr %31, ptr %11, align 8, !tbaa !13
  %32 = load i32, ptr %7, align 4, !tbaa !9
  %33 = load ptr, ptr %11, align 8, !tbaa !13
  %34 = getelementptr inbounds nuw %struct.IDAadjMemRec, ptr %33, i32 0, i32 8
  %35 = load i32, ptr %34, align 8, !tbaa !44
  %36 = icmp sge i32 %32, %35
  br i1 %36, label %37, label %39

37:                                               ; preds = %28
  %38 = load ptr, ptr %10, align 8, !tbaa !11
  call void (ptr, i32, i32, ptr, ptr, ptr, ...) @IDAProcessError(ptr noundef %38, i32 noundef -22, i32 noundef 1936, ptr noundef @__func__.IDAGetQuadB, ptr noundef @.str, ptr noundef @.str.12)
  store i32 -22, ptr %5, align 4
  store i32 1, ptr %16, align 4
  br label %89

39:                                               ; preds = %28
  %40 = load ptr, ptr %11, align 8, !tbaa !13
  %41 = getelementptr inbounds nuw %struct.IDAadjMemRec, ptr %40, i32 0, i32 7
  %42 = load ptr, ptr %41, align 8, !tbaa !42
  store ptr %42, ptr %12, align 8, !tbaa !99
  br label %43

43:                                               ; preds = %53, %39
  %44 = load ptr, ptr %12, align 8, !tbaa !99
  %45 = icmp ne ptr %44, null
  br i1 %45, label %46, label %57

46:                                               ; preds = %43
  %47 = load i32, ptr %7, align 4, !tbaa !9
  %48 = load ptr, ptr %12, align 8, !tbaa !99
  %49 = getelementptr inbounds nuw %struct.IDABMemRec, ptr %48, i32 0, i32 0
  %50 = load i32, ptr %49, align 8, !tbaa !156
  %51 = icmp eq i32 %47, %50
  br i1 %51, label %52, label %53

52:                                               ; preds = %46
  br label %57

53:                                               ; preds = %46
  %54 = load ptr, ptr %12, align 8, !tbaa !99
  %55 = getelementptr inbounds nuw %struct.IDABMemRec, ptr %54, i32 0, i32 17
  %56 = load ptr, ptr %55, align 8, !tbaa !100
  store ptr %56, ptr %12, align 8, !tbaa !99
  br label %43

57:                                               ; preds = %52, %43
  %58 = load ptr, ptr %12, align 8, !tbaa !99
  %59 = getelementptr inbounds nuw %struct.IDABMemRec, ptr %58, i32 0, i32 2
  %60 = load ptr, ptr %59, align 8, !tbaa !102
  store ptr %60, ptr %13, align 8, !tbaa !3
  %61 = load ptr, ptr %13, align 8, !tbaa !3
  %62 = call i32 @IDAGetNumSteps(ptr noundef %61, ptr noundef %15)
  store i32 %62, ptr %14, align 4, !tbaa !9
  %63 = load i32, ptr %14, align 4, !tbaa !9
  %64 = icmp ne i32 0, %63
  br i1 %64, label %65, label %67

65:                                               ; preds = %57
  %66 = load i32, ptr %14, align 4, !tbaa !9
  store i32 %66, ptr %5, align 4
  store i32 1, ptr %16, align 4
  br label %89

67:                                               ; preds = %57
  %68 = load i64, ptr %15, align 8, !tbaa !7
  %69 = icmp eq i64 %68, 0
  br i1 %69, label %70, label %82

70:                                               ; preds = %67
  %71 = load ptr, ptr %12, align 8, !tbaa !99
  %72 = getelementptr inbounds nuw %struct.IDABMemRec, ptr %71, i32 0, i32 2
  %73 = load ptr, ptr %72, align 8, !tbaa !102
  %74 = getelementptr inbounds nuw %struct.IDAMemRec, ptr %73, i32 0, i32 73
  %75 = getelementptr inbounds [6 x ptr], ptr %74, i64 0, i64 0
  %76 = load ptr, ptr %75, align 8, !tbaa !71
  %77 = load ptr, ptr %9, align 8, !tbaa !71
  call void @N_VScale(double noundef 1.000000e+00, ptr noundef %76, ptr noundef %77)
  %78 = load ptr, ptr %12, align 8, !tbaa !99
  %79 = getelementptr inbounds nuw %struct.IDABMemRec, ptr %78, i32 0, i32 14
  %80 = load double, ptr %79, align 8, !tbaa !168
  %81 = load ptr, ptr %8, align 8, !tbaa !107
  store double %80, ptr %81, align 8, !tbaa !70
  br label %87

82:                                               ; preds = %67
  %83 = load ptr, ptr %13, align 8, !tbaa !3
  %84 = load ptr, ptr %8, align 8, !tbaa !107
  %85 = load ptr, ptr %9, align 8, !tbaa !71
  %86 = call i32 @IDAGetQuad(ptr noundef %83, ptr noundef %84, ptr noundef %85)
  store i32 %86, ptr %14, align 4, !tbaa !9
  br label %87

87:                                               ; preds = %82, %70
  %88 = load i32, ptr %14, align 4, !tbaa !9
  store i32 %88, ptr %5, align 4
  store i32 1, ptr %16, align 4
  br label %89

89:                                               ; preds = %87, %65, %37, %26, %19
  call void @llvm.lifetime.end.p0(i64 8, ptr %15) #6
  call void @llvm.lifetime.end.p0(i64 4, ptr %14) #6
  call void @llvm.lifetime.end.p0(i64 8, ptr %13) #6
  call void @llvm.lifetime.end.p0(i64 8, ptr %12) #6
  call void @llvm.lifetime.end.p0(i64 8, ptr %11) #6
  call void @llvm.lifetime.end.p0(i64 8, ptr %10) #6
  %90 = load i32, ptr %5, align 4
  ret i32 %90
}