; Function Attrs: nounwind uwtable
define i32 @IDAGetQuadB(ptr noundef %0, i32 noundef %1, ptr noundef %2, ptr noundef %3) local_unnamed_addr #0 {
  %5 = alloca i64, align 8
  call void @llvm.lifetime.start.p0(i64 8, ptr nonnull %5) #9
  %6 = icmp eq ptr %0, null
  br i1 %6, label %7, label %8

7:                                                ; preds = %4
  tail call void (ptr, i32, i32, ptr, ptr, ptr, ...) @IDAProcessError(ptr noundef null, i32 noundef -20, i32 noundef 1918, ptr noundef nonnull @__func__.IDAGetQuadB, ptr noundef nonnull @.str, ptr noundef nonnull @.str.1) #9
  br label %38

8:                                                ; preds = %4
  %9 = getelementptr inbounds nuw i8, ptr %0, i64 2120
  %10 = load i32, ptr %9, align 8, !tbaa !46
  %11 = icmp eq i32 %10, 0
  br i1 %11, label %12, label %13

12:                                               ; preds = %8
  tail call void (ptr, i32, i32, ptr, ptr, ptr, ...) @IDAProcessError(ptr noundef nonnull %0, i32 noundef -101, i32 noundef 1927, ptr noundef nonnull @__func__.IDAGetQuadB, ptr noundef nonnull @.str, ptr noundef nonnull @.str.5) #9
  br label %38

13:                                               ; preds = %8
  %14 = getelementptr inbounds nuw i8, ptr %0, i64 2112
  %15 = load ptr, ptr %14, align 8, !tbaa !3
  %16 = getelementptr inbounds nuw i8, ptr %15, i64 56
  %17 = load i32, ptr %16, align 8, !tbaa !40
  %.not = icmp slt i32 %1, %17
  br i1 %.not, label %19, label %18

18:                                               ; preds = %13
  tail call void (ptr, i32, i32, ptr, ptr, ptr, ...) @IDAProcessError(ptr noundef nonnull %0, i32 noundef -22, i32 noundef 1936, ptr noundef nonnull @__func__.IDAGetQuadB, ptr noundef nonnull @.str, ptr noundef nonnull @.str.12) #9
  br label %38

19:                                               ; preds = %13
  %20 = getelementptr inbounds nuw i8, ptr %15, i64 48
  br label %.lr.ph

.lr.ph:                                           ; preds = %.lr.ph, %19
  %.026.sink.in = phi ptr [ %23, %.lr.ph ], [ %20, %19 ]
  %.026.sink = load ptr, ptr %.026.sink.in, align 8, !tbaa !88, !nonnull !144, !noundef !144
  %21 = load i32, ptr %.026.sink, align 8, !tbaa !143
  %22 = icmp eq i32 %1, %21
  %23 = getelementptr inbounds nuw i8, ptr %.026.sink, i64 128
  br i1 %22, label %._crit_edge, label %.lr.ph

._crit_edge:                                      ; preds = %.lr.ph
  %24 = getelementptr inbounds nuw i8, ptr %.026.sink, i64 16
  %25 = load ptr, ptr %24, align 8, !tbaa !89
  %26 = call i32 @IDAGetNumSteps(ptr noundef %25, ptr noundef nonnull %5) #9
  %.not31 = icmp eq i32 %26, 0
  br i1 %.not31, label %27, label %38

27:                                               ; preds = %._crit_edge
  %28 = load i64, ptr %5, align 8, !tbaa !159
  %29 = icmp eq i64 %28, 0
  br i1 %29, label %30, label %36

30:                                               ; preds = %27
  %31 = load ptr, ptr %24, align 8, !tbaa !89
  %32 = getelementptr inbounds nuw i8, ptr %31, i64 768
  %33 = load ptr, ptr %32, align 8, !tbaa !66
  call void @N_VScale(double noundef 1.000000e+00, ptr noundef %33, ptr noundef %3) #9
  %34 = getelementptr inbounds nuw i8, ptr %.026.sink, i64 104
  %35 = load double, ptr %34, align 8, !tbaa !153
  store double %35, ptr %2, align 8, !tbaa !65
  br label %38

36:                                               ; preds = %27
  %37 = call i32 @IDAGetQuad(ptr noundef %25, ptr noundef %2, ptr noundef %3) #9
  br label %38

38:                                               ; preds = %30, %36, %._crit_edge, %18, %12, %7
  %.025 = phi i32 [ -20, %7 ], [ -101, %12 ], [ -22, %18 ], [ %26, %._crit_edge ], [ 0, %30 ], [ %37, %36 ]
  call void @llvm.lifetime.end.p0(i64 8, ptr nonnull %5) #9
  ret i32 %.025
}